target datalayout = "e-m:e-p270:32:32-p271:32:32-p272:64:64-i64:64-i128:128-f80:128-n8:16:32:64-S128"
target triple = "x86_64-pc-linux-gnu"

%struct._zval_struct = type { %union._zend_value, %union.anon.0, %union.anon.3 }
%union._zend_value = type { i64 }
%union.anon.0 = type { i32 }
%union.anon.3 = type { i32 }
%struct._zend_array = type { %struct._zend_refcounted_h, %union.anon.5, i32, %union.anon.7, i32, i32, i32, i32, i64, ptr }
%struct._zend_refcounted_h = type { i32, %union.anon }
%union.anon = type { i32 }
%union.anon.5 = type { i32 }
%union.anon.7 = type { ptr }
%struct._zend_object_handlers = type { i32, ptr, ptr, ptr, ptr, ptr, ptr, ptr, ptr, ptr, ptr, ptr, ptr, ptr, ptr, ptr, ptr, ptr, ptr, ptr, ptr, ptr, ptr, ptr, ptr }
%struct._zend_object = type { %struct._zend_refcounted_h, i32, ptr, ptr, ptr, [1 x %struct._zval_struct] }

; Function Attrs: nounwind uwtable
define ptr @zend_std_get_properties_for(ptr noundef %0, i32 noundef %1) #0 {
  %3 = alloca ptr, align 8
  %4 = alloca ptr, align 8
  %5 = alloca ptr, align 8
  %6 = alloca ptr, align 8
  %7 = alloca i32, align 4
  %8 = alloca ptr, align 8
  %9 = alloca i32, align 4
  store ptr %0, ptr %6, align 8
  store i32 %1, ptr %7, align 4
  %10 = load i32, ptr %7, align 4
  switch i32 %10, label %72 [
    i32 0, label %11
    i32 1, label %47
    i32 2, label %47
    i32 3, label %47
    i32 4, label %47
  ]

11:                                               ; preds = %2
  %12 = load ptr, ptr %6, align 8
  %13 = getelementptr inbounds %struct._zend_object, ptr %12, i32 0, i32 3
  %14 = load ptr, ptr %13, align 8
  %15 = getelementptr inbounds %struct._zend_object_handlers, ptr %14, i32 0, i32 19
  %16 = load ptr, ptr %15, align 8
  %17 = icmp ne ptr %16, null
  br i1 %17, label %18, label %46

18:                                               ; preds = %11
  %19 = load ptr, ptr %6, align 8
  %20 = getelementptr inbounds %struct._zend_object, ptr %19, i32 0, i32 3
  %21 = load ptr, ptr %20, align 8
  %22 = getelementptr inbounds %struct._zend_object_handlers, ptr %21, i32 0, i32 19
  %23 = load ptr, ptr %22, align 8
  %24 = load ptr, ptr %6, align 8
  %25 = call ptr %23(ptr noundef %24, ptr noundef %9)
  store ptr %25, ptr %8, align 8
  %26 = load ptr, ptr %8, align 8
  %27 = icmp ne ptr %26, null
  br i1 %27, label %28, label %44

28:                                               ; preds = %18
  %29 = load i32, ptr %9, align 4
  %30 = icmp ne i32 %29, 0
  br i1 %30, label %44, label %31

31:                                               ; preds = %28
  %32 = load ptr, ptr %8, align 8
  %33 = getelementptr inbounds %struct._zend_array, ptr %32, i32 0, i32 0
  store ptr %33, ptr %3, align 8
  %34 = load ptr, ptr %3, align 8
  %35 = getelementptr inbounds %struct._zend_refcounted_h, ptr %34, i32 0, i32 1
  %36 = load i32, ptr %35, align 4
  %37 = and i32 %36, 64
  %38 = icmp ne i32 %37, 0
  br i1 %38, label %43, label %39

39:                                               ; preds = %31
  %40 = load ptr, ptr %3, align 8
  %41 = load i32, ptr %40, align 4
  %42 = add i32 %41, 1
  store i32 %42, ptr %40, align 4
  br label %43

43:                                               ; preds = %39, %31
  br label %44

44:                                               ; preds = %43, %28, %18
  %45 = load ptr, ptr %8, align 8
  store ptr %45, ptr %5, align 8
  br label %73

46:                                               ; preds = %11
  br label %47

47:                                               ; preds = %46, %2, %2, %2, %2
  %48 = load ptr, ptr %6, align 8
  %49 = getelementptr inbounds %struct._zend_object, ptr %48, i32 0, i32 3
  %50 = load ptr, ptr %49, align 8
  %51 = getelementptr inbounds %struct._zend_object_handlers, ptr %50, i32 0, i32 13
  %52 = load ptr, ptr %51, align 8
  %53 = load ptr, ptr %6, align 8
  %54 = call ptr %52(ptr noundef %53)
  store ptr %54, ptr %8, align 8
  %55 = load ptr, ptr %8, align 8
  %56 = icmp ne ptr %55, null
  br i1 %56, label %57, label %70

57:                                               ; preds = %47
  %58 = load ptr, ptr %8, align 8
  %59 = getelementptr inbounds %struct._zend_array, ptr %58, i32 0, i32 0
  store ptr %59, ptr %4, align 8
  %60 = load ptr, ptr %4, align 8
  %61 = getelementptr inbounds %struct._zend_refcounted_h, ptr %60, i32 0, i32 1
  %62 = load i32, ptr %61, align 4
  %63 = and i32 %62, 64
  %64 = icmp ne i32 %63, 0
  br i1 %64, label %69, label %65

65:                                               ; preds = %57
  %66 = load ptr, ptr %4, align 8
  %67 = load i32, ptr %66, align 4
  %68 = add i32 %67, 1
  store i32 %68, ptr %66, align 4
  br label %69

69:                                               ; preds = %65, %57
  br label %70

70:                                               ; preds = %69, %47
  %71 = load ptr, ptr %8, align 8
  store ptr %71, ptr %5, align 8
  br label %73

72:                                               ; preds = %2
  unreachable

73:                                               ; preds = %70, %44
  %74 = load ptr, ptr %5, align 8
  ret ptr %74
}

; Function Attrs: nounwind uwtable
define ptr @zend_get_properties_for(ptr noundef %0, i32 noundef %1) #0 {
  %3 = alloca ptr, align 8
  %4 = alloca ptr, align 8
  %5 = alloca i32, align 4
  %6 = alloca ptr, align 8
  store ptr %0, ptr %4, align 8
  store i32 %1, ptr %5, align 4
  %7 = load ptr, ptr %4, align 8
  %8 = getelementptr inbounds %struct._zval_struct, ptr %7, i32 0, i32 0
  %9 = load ptr, ptr %8, align 8
  store ptr %9, ptr %6, align 8
  %10 = load ptr, ptr %6, align 8
  %11 = getelementptr inbounds %struct._zend_object, ptr %10, i32 0, i32 3
  %12 = load ptr, ptr %11, align 8
  %13 = getelementptr inbounds %struct._zend_object_handlers, ptr %12, i32 0, i32 24
  %14 = load ptr, ptr %13, align 8
  %15 = icmp ne ptr %14, null
  br i1 %15, label %16, label %25

16:                                               ; preds = %2
  %17 = load ptr, ptr %6, align 8
  %18 = getelementptr inbounds %struct._zend_object, ptr %17, i32 0, i32 3
  %19 = load ptr, ptr %18, align 8
  %20 = getelementptr inbounds %struct._zend_object_handlers, ptr %19, i32 0, i32 24
  %21 = load ptr, ptr %20, align 8
  %22 = load ptr, ptr %6, align 8
  %23 = load i32, ptr %5, align 4
  %24 = call ptr %21(ptr noundef %22, i32 noundef %23)
  store ptr %24, ptr %3, align 8
  br label %29

25:                                               ; preds = %2
  %26 = load ptr, ptr %6, align 8
  %27 = load i32, ptr %5, align 4
  %28 = call ptr @zend_std_get_properties_for(ptr noundef %26, i32 noundef %27)
  store ptr %28, ptr %3, align 8
  br label %29

29:                                               ; preds = %25, %16
  %30 = load ptr, ptr %3, align 8
  ret ptr %30
}