; Function Attrs: nounwind uwtable
define ptr @zend_get_properties_for(ptr nocapture noundef readonly %0, i32 noundef %1) local_unnamed_addr #0 {
  %3 = alloca i32, align 4
  %4 = load ptr, ptr %0, align 8
  %5 = getelementptr inbounds i8, ptr %4, i64 24
  %6 = load ptr, ptr %5, align 8
  %7 = getelementptr inbounds i8, ptr %6, i64 192
  %8 = load ptr, ptr %7, align 8
  %.not = icmp eq ptr %8, null
  br i1 %.not, label %11, label %9

9:                                                ; preds = %2
  %10 = tail call ptr %8(ptr noundef nonnull %4, i32 noundef %1) #15
  br label %33

11:                                               ; preds = %2
  call void @llvm.lifetime.start.p0(i64 4, ptr nonnull %3)
  %switch.i = icmp eq i32 %1, 0
  br i1 %switch.i, label %12, label %._crit_edge.i

12:                                               ; preds = %11
  %13 = getelementptr inbounds i8, ptr %6, i64 152
  %14 = load ptr, ptr %13, align 8
  %.not.i = icmp eq ptr %14, null
  br i1 %.not.i, label %._crit_edge.i, label %15

15:                                               ; preds = %12
  %16 = call ptr %14(ptr noundef nonnull %4, ptr noundef nonnull %3) #15
  %17 = icmp eq ptr %16, null
  %18 = load i32, ptr %3, align 4
  %19 = icmp ne i32 %18, 0
  %or.cond.i = select i1 %17, i1 true, i1 %19
  br i1 %or.cond.i, label %zend_std_get_properties_for.exit, label %20

20:                                               ; preds = %15
  %21 = getelementptr inbounds i8, ptr %16, i64 4
  %22 = load i32, ptr %21, align 4
  %23 = and i32 %22, 64
  %.not22.i = icmp eq i32 %23, 0
  br i1 %.not22.i, label %.sink.split.i, label %zend_std_get_properties_for.exit

._crit_edge.i:                                    ; preds = %12, %11
  %24 = getelementptr inbounds i8, ptr %6, i64 104
  %25 = load ptr, ptr %24, align 8
  %26 = tail call ptr %25(ptr noundef nonnull %4) #15
  %.not20.i = icmp eq ptr %26, null
  br i1 %.not20.i, label %zend_std_get_properties_for.exit, label %27

27:                                               ; preds = %._crit_edge.i
  %28 = getelementptr inbounds i8, ptr %26, i64 4
  %29 = load i32, ptr %28, align 4
  %30 = and i32 %29, 64
  %.not21.i = icmp eq i32 %30, 0
  br i1 %.not21.i, label %.sink.split.i, label %zend_std_get_properties_for.exit

.sink.split.i:                                    ; preds = %27, %20
  %.sink.i = phi ptr [ %16, %20 ], [ %26, %27 ]
  %31 = load i32, ptr %.sink.i, align 4
  %32 = add i32 %31, 1
  store i32 %32, ptr %.sink.i, align 4
  br label %zend_std_get_properties_for.exit

zend_std_get_properties_for.exit:                 ; preds = %15, %20, %._crit_edge.i, %27, %.sink.split.i
  %.0.i = phi ptr [ %16, %20 ], [ %16, %15 ], [ %26, %27 ], [ null, %._crit_edge.i ], [ %.sink.i, %.sink.split.i ]
  call void @llvm.lifetime.end.p0(i64 4, ptr nonnull %3)
  br label %33

33:                                               ; preds = %zend_std_get_properties_for.exit, %9
  %.0 = phi ptr [ %10, %9 ], [ %.0.i, %zend_std_get_properties_for.exit ]
  ret ptr %.0
}